target datalayout = "e-m:e-p270:32:32-p271:32:32-p272:64:64-i64:64-i128:128-f80:128-n8:16:32:64-S128"
target triple = "x86_64-unknown-linux-gnu"

%struct.dsa_st = type { i64, ptr, ptr, ptr, ptr, ptr, ptr, ptr, i32, %union.crypto_mutex_st, ptr, i32, %struct.crypto_ex_data_st }
%union.crypto_mutex_st = type { double, [48 x i8] }
%struct.crypto_ex_data_st = type { ptr }

@.str = private unnamed_addr constant [120 x i8] c"generated/home/dtcxzyw/WorkSpace/Projects/compilers/llvm-opt-benchmark/bench/libquic/libquic/boringssl/crypto/dsa/dsa.c\00", align 1

; Function Attrs: nounwind uwtable
define hidden ptr @DSA_new() #0 {
entry:
  %retval = alloca ptr, align 8
  %dsa = alloca ptr, align 8
  %call = call noalias ptr @malloc(i64 noundef 152) #7
  store ptr %call, ptr %dsa, align 8
  %0 = load ptr, ptr %dsa, align 8
  %cmp = icmp eq ptr %0, null
  br i1 %cmp, label %if.then, label %if.end

if.then:                                          ; preds = %entry
  call void @ERR_put_error(i32 noundef 10, i32 noundef 0, i32 noundef 65, ptr noundef @.str, i32 noundef 89)
  store ptr null, ptr %retval, align 8
  br label %return

if.end:                                           ; preds = %entry
  %1 = load ptr, ptr %dsa, align 8
  call void @llvm.memset.p0.i64(ptr align 8 %1, i8 0, i64 152, i1 false)
  %2 = load ptr, ptr %dsa, align 8
  %references = getelementptr inbounds %struct.dsa_st, ptr %2, i32 0, i32 11
  store i32 1, ptr %references, align 8
  %3 = load ptr, ptr %dsa, align 8
  %method_mont_p_lock = getelementptr inbounds %struct.dsa_st, ptr %3, i32 0, i32 9
  call void @CRYPTO_MUTEX_init(ptr noundef %method_mont_p_lock)
  %4 = load ptr, ptr %dsa, align 8
  %ex_data = getelementptr inbounds %struct.dsa_st, ptr %4, i32 0, i32 12
  call void @CRYPTO_new_ex_data(ptr noundef %ex_data)
  %5 = load ptr, ptr %dsa, align 8
  store ptr %5, ptr %retval, align 8
  br label %return

return:                                           ; preds = %if.end, %if.then
  %6 = load ptr, ptr %retval, align 8
  ret ptr %6
}

; Function Attrs: nounwind uwtable
define hidden ptr @DSAparams_dup(ptr noundef %dsa) #0 {
entry:
  %retval = alloca ptr, align 8
  %dsa.addr = alloca ptr, align 8
  %ret = alloca ptr, align 8
  store ptr %dsa, ptr %dsa.addr, align 8
  %call = call ptr @DSA_new()
  store ptr %call, ptr %ret, align 8
  %0 = load ptr, ptr %ret, align 8
  %cmp = icmp eq ptr %0, null
  br i1 %cmp, label %if.then, label %if.end

if.then:                                          ; preds = %entry
  store ptr null, ptr %retval, align 8
  br label %return

if.end:                                           ; preds = %entry
  %1 = load ptr, ptr %dsa.addr, align 8
  %p = getelementptr inbounds %struct.dsa_st, ptr %1, i32 0, i32 1
  %2 = load ptr, ptr %p, align 8
  %call1 = call ptr @BN_dup(ptr noundef %2)
  %3 = load ptr, ptr %ret, align 8
  %p2 = getelementptr inbounds %struct.dsa_st, ptr %3, i32 0, i32 1
  store ptr %call1, ptr %p2, align 8
  %4 = load ptr, ptr %dsa.addr, align 8
  %q = getelementptr inbounds %struct.dsa_st, ptr %4, i32 0, i32 2
  %5 = load ptr, ptr %q, align 8
  %call3 = call ptr @BN_dup(ptr noundef %5)
  %6 = load ptr, ptr %ret, align 8
  %q4 = getelementptr inbounds %struct.dsa_st, ptr %6, i32 0, i32 2
  store ptr %call3, ptr %q4, align 8
  %7 = load ptr, ptr %dsa.addr, align 8
  %g = getelementptr inbounds %struct.dsa_st, ptr %7, i32 0, i32 3
  %8 = load ptr, ptr %g, align 8
  %call5 = call ptr @BN_dup(ptr noundef %8)
  %9 = load ptr, ptr %ret, align 8
  %g6 = getelementptr inbounds %struct.dsa_st, ptr %9, i32 0, i32 3
  store ptr %call5, ptr %g6, align 8
  %10 = load ptr, ptr %ret, align 8
  %p7 = getelementptr inbounds %struct.dsa_st, ptr %10, i32 0, i32 1
  %11 = load ptr, ptr %p7, align 8
  %cmp8 = icmp eq ptr %11, null
  br i1 %cmp8, label %if.then14, label %lor.lhs.false

lor.lhs.false:                                    ; preds = %if.end
  %12 = load ptr, ptr %ret, align 8
  %q9 = getelementptr inbounds %struct.dsa_st, ptr %12, i32 0, i32 2
  %13 = load ptr, ptr %q9, align 8
  %cmp10 = icmp eq ptr %13, null
  br i1 %cmp10, label %if.then14, label %lor.lhs.false11

lor.lhs.false11:                                  ; preds = %lor.lhs.false
  %14 = load ptr, ptr %ret, align 8
  %g12 = getelementptr inbounds %struct.dsa_st, ptr %14, i32 0, i32 3
  %15 = load ptr, ptr %g12, align 8
  %cmp13 = icmp eq ptr %15, null
  br i1 %cmp13, label %if.then14, label %if.end15

if.then14:                                        ; preds = %lor.lhs.false11, %lor.lhs.false, %if.end
  %16 = load ptr, ptr %ret, align 8
  call void @DSA_free(ptr noundef %16)
  store ptr null, ptr %retval, align 8
  br label %return

if.end15:                                         ; preds = %lor.lhs.false11
  %17 = load ptr, ptr %ret, align 8
  store ptr %17, ptr %retval, align 8
  br label %return

return:                                           ; preds = %if.end15, %if.then14, %if.then
  %18 = load ptr, ptr %retval, align 8
  ret ptr %18
}