; Function Attrs: nounwind uwtable
define hidden noundef ptr @DSAparams_dup(ptr noundef readonly captures(none) %dsa) local_unnamed_addr #0 {
entry:
  %calloc.i = tail call dereferenceable_or_null(152) ptr @calloc(i64 1, i64 152)
  %cmp.i = icmp eq ptr %calloc.i, null
  br i1 %cmp.i, label %DSA_new.exit.thread, label %if.end

DSA_new.exit.thread:                              ; preds = %entry
  tail call void @ERR_put_error(i32 noundef 10, i32 noundef 0, i32 noundef 65, ptr noundef nonnull @.str, i32 noundef 89) #8
  br label %return

if.end:                                           ; preds = %entry
  %references.i = getelementptr inbounds nuw i8, ptr %calloc.i, i64 136
  store i32 1, ptr %references.i, align 8
  %method_mont_p_lock.i = getelementptr inbounds nuw i8, ptr %calloc.i, i64 72
  tail call void @CRYPTO_MUTEX_init(ptr noundef nonnull %method_mont_p_lock.i) #8
  %ex_data.i = getelementptr inbounds nuw i8, ptr %calloc.i, i64 144
  tail call void @CRYPTO_new_ex_data(ptr noundef nonnull %ex_data.i) #8
  %p = getelementptr inbounds nuw i8, ptr %dsa, i64 8
  %0 = load ptr, ptr %p, align 8
  %call1 = tail call ptr @BN_dup(ptr noundef %0) #8
  %p2 = getelementptr inbounds nuw i8, ptr %calloc.i, i64 8
  store ptr %call1, ptr %p2, align 8
  %q = getelementptr inbounds nuw i8, ptr %dsa, i64 16
  %1 = load ptr, ptr %q, align 8
  %call3 = tail call ptr @BN_dup(ptr noundef %1) #8
  %q4 = getelementptr inbounds nuw i8, ptr %calloc.i, i64 16
  store ptr %call3, ptr %q4, align 8
  %g = getelementptr inbounds nuw i8, ptr %dsa, i64 24
  %2 = load ptr, ptr %g, align 8
  %call5 = tail call ptr @BN_dup(ptr noundef %2) #8
  %g6 = getelementptr inbounds nuw i8, ptr %calloc.i, i64 24
  store ptr %call5, ptr %g6, align 8
  %3 = load ptr, ptr %p2, align 8
  %cmp8 = icmp eq ptr %3, null
  br i1 %cmp8, label %if.then14, label %lor.lhs.false

lor.lhs.false:                                    ; preds = %if.end
  %4 = load ptr, ptr %q4, align 8
  %cmp10 = icmp eq ptr %4, null
  %cmp13 = icmp eq ptr %call5, null
  %or.cond = select i1 %cmp10, i1 true, i1 %cmp13
  br i1 %or.cond, label %if.then14, label %return

if.then14:                                        ; preds = %lor.lhs.false, %if.end
  tail call void @DSA_free(ptr noundef nonnull %calloc.i)
  br label %return

return:                                           ; preds = %DSA_new.exit.thread, %lor.lhs.false, %if.then14
  %retval.0 = phi ptr [ null, %if.then14 ], [ %calloc.i, %lor.lhs.false ], [ null, %DSA_new.exit.thread ]
  ret ptr %retval.0
}